; Function Attrs: mustprogress uwtable
define void @_Z12init_commrecP10tmpi_comm_(ptr dead_on_unwind noalias nocapture writable writeonly sret(%"class.std::unique_ptr") align 8 %0, ptr noundef %1) local_unnamed_addr #0 personality ptr @__gxx_personality_v0 {
  %3 = alloca i32, align 4
  %4 = alloca i32, align 4
  %5 = call noundef i32 @_Z14tMPI_Comm_rankP10tmpi_comm_Pi(ptr noundef %1, ptr noundef nonnull %3)
  %6 = call noundef i32 @_Z14tMPI_Comm_sizeP10tmpi_comm_Pi(ptr noundef %1, ptr noundef nonnull %4)
  call void @llvm.experimental.noalias.scope.decl(metadata !5)
  %7 = call noalias noundef nonnull dereferenceable(112) ptr @_Znwm(i64 noundef 112) #14, !noalias !5
  invoke void @_ZN9t_commrecC1Ev(ptr noundef nonnull align 8 dereferenceable(108) %7)
          to label %_ZSt11make_uniqueI9t_commrecJEENSt8__detail9_MakeUniqIT_E15__single_objectEDpOT0_.exit unwind label %8, !noalias !5

8:                                                ; preds = %2
  %9 = landingpad { ptr, i32 }
          cleanup
  call void @_ZdlPv(ptr noundef nonnull %7) #15, !noalias !5
  resume { ptr, i32 } %9

_ZSt11make_uniqueI9t_commrecJEENSt8__detail9_MakeUniqIT_E15__single_objectEDpOT0_.exit: ; preds = %2
  store ptr %7, ptr %0, align 8, !alias.scope !5
  %10 = getelementptr inbounds i8, ptr %7, i64 40
  store ptr %1, ptr %10, align 8
  %11 = load i32, ptr %4, align 4
  %12 = getelementptr inbounds i8, ptr %7, i64 48
  store i32 %11, ptr %12, align 8
  %13 = load i32, ptr %3, align 4
  %14 = getelementptr inbounds i8, ptr %7, i64 52
  store i32 %13, ptr %14, align 4
  %15 = getelementptr inbounds i8, ptr %7, i64 4
  store i32 -1, ptr %15, align 4
  %16 = getelementptr inbounds i8, ptr %7, i64 32
  store i32 -1, ptr %16, align 8
  %17 = getelementptr inbounds i8, ptr %7, i64 12
  store i32 -1, ptr %17, align 4
  store i32 -1, ptr %7, align 8
  %18 = getelementptr inbounds i8, ptr %7, i64 16
  %19 = getelementptr inbounds i8, ptr %7, i64 104
  call void @llvm.memset.p0.i64(ptr noundef nonnull align 8 dereferenceable(16) %18, i8 0, i64 16, i1 false)
  store i32 3, ptr %19, align 8
  ret void
}